; Function Attrs: nounwind uwtable
define void @Min_ManTest3(ptr noundef %0, ptr noundef %1) local_unnamed_addr #0 {
  %3 = alloca i32, align 4
  %4 = alloca ptr, align 8
  call void @llvm.lifetime.start.p0(i64 4, ptr nonnull %3) #27
  call void @llvm.lifetime.start.p0(i64 8, ptr nonnull %4) #27
  store ptr null, ptr %4, align 8, !tbaa !79
  %5 = tail call ptr @Min_ManFromGia(ptr noundef %0, ptr noundef null)
  call void @Gia_ManStopP(ptr noundef nonnull %4) #27
  %6 = getelementptr inbounds nuw i8, ptr %5, i64 48
  %7 = getelementptr inbounds nuw i8, ptr %5, i64 16
  %.val4.i = load i32, ptr %7, align 8, !tbaa !33
  %8 = load i32, ptr %6, align 8, !tbaa !80
  %.not.i.i = icmp slt i32 %8, %.val4.i
  br i1 %.not.i.i, label %9, label %Vec_StrGrow.exit.i

9:                                                ; preds = %2
  %10 = getelementptr inbounds nuw i8, ptr %5, i64 56
  %11 = load ptr, ptr %10, align 8, !tbaa !49
  %.not9.i.i = icmp eq ptr %11, null
  %12 = sext i32 %.val4.i to i64
  br i1 %.not9.i.i, label %15, label %13

13:                                               ; preds = %9
  %14 = call ptr @realloc(ptr noundef nonnull %11, i64 noundef %12) #28
  br label %17

15:                                               ; preds = %9
  %16 = call noalias ptr @malloc(i64 noundef %12) #26
  br label %17

17:                                               ; preds = %15, %13
  %18 = phi ptr [ %14, %13 ], [ %16, %15 ]
  store ptr %18, ptr %10, align 8, !tbaa !49
  store i32 %.val4.i, ptr %6, align 8, !tbaa !80
  br label %Vec_StrGrow.exit.i

Vec_StrGrow.exit.i:                               ; preds = %17, %2
  %19 = phi i32 [ %8, %2 ], [ %.val4.i, %17 ]
  %20 = getelementptr i8, ptr %5, i64 20
  %.val.i = load i32, ptr %20, align 4, !tbaa !30
  %.not.i.i.i = icmp slt i32 %19, %.val.i
  br i1 %.not.i.i.i, label %21, label %Vec_StrGrow.exit.i.i

21:                                               ; preds = %Vec_StrGrow.exit.i
  %22 = getelementptr inbounds nuw i8, ptr %5, i64 56
  %23 = load ptr, ptr %22, align 8, !tbaa !49
  %.not9.i.i.i = icmp eq ptr %23, null
  %24 = sext i32 %.val.i to i64
  br i1 %.not9.i.i.i, label %27, label %25

25:                                               ; preds = %21
  %26 = call ptr @realloc(ptr noundef nonnull %23, i64 noundef %24) #28
  br label %29

27:                                               ; preds = %21
  %28 = call noalias ptr @malloc(i64 noundef %24) #26
  br label %29

29:                                               ; preds = %27, %25
  %30 = phi ptr [ %26, %25 ], [ %28, %27 ]
  store ptr %30, ptr %22, align 8, !tbaa !49
  store i32 %.val.i, ptr %6, align 8, !tbaa !80
  br label %Vec_StrGrow.exit.i.i

Vec_StrGrow.exit.i.i:                             ; preds = %29, %Vec_StrGrow.exit.i
  %31 = getelementptr inbounds nuw i8, ptr %5, i64 52
  store i32 %.val.i, ptr %31, align 4, !tbaa !81
  %32 = icmp sgt i32 %.val.i, 0
  br i1 %32, label %.lr.ph.i.i, label %Min_ManStartValsL.exit

.lr.ph.i.i:                                       ; preds = %Vec_StrGrow.exit.i.i
  %33 = getelementptr inbounds nuw i8, ptr %5, i64 56
  br label %34

34:                                               ; preds = %34, %.lr.ph.i.i
  %indvars.iv.i.i = phi i64 [ 0, %.lr.ph.i.i ], [ %indvars.iv.next.i.i, %34 ]
  %35 = load ptr, ptr %33, align 8, !tbaa !49
  %36 = getelementptr inbounds nuw i8, ptr %35, i64 %indvars.iv.i.i
  store i8 2, ptr %36, align 1, !tbaa !50
  %indvars.iv.next.i.i = add nuw nsw i64 %indvars.iv.i.i, 1
  %37 = load i32, ptr %31, align 4, !tbaa !81
  %38 = sext i32 %37 to i64
  %39 = icmp slt i64 %indvars.iv.next.i.i, %38
  br i1 %39, label %34, label %Min_ManStartValsL.exit, !llvm.loop !82

Min_ManStartValsL.exit:                           ; preds = %34, %Vec_StrGrow.exit.i.i
  %40 = call ptr @Min_TargGenerateCexes(ptr noundef nonnull %5, ptr noundef %1, i32 noundef 10000, i32 noundef 10, ptr noundef nonnull %3, i32 noundef 1)
  %41 = getelementptr inbounds nuw i8, ptr %40, i64 8
  %42 = load ptr, ptr %41, align 8, !tbaa !32
  %.not.i = icmp eq ptr %42, null
  br i1 %.not.i, label %Vec_IntFree.exit, label %43

43:                                               ; preds = %Min_ManStartValsL.exit
  call void @free(ptr noundef nonnull %42) #27
  br label %Vec_IntFree.exit

Vec_IntFree.exit:                                 ; preds = %Min_ManStartValsL.exit, %43
  call void @free(ptr noundef nonnull %40) #27
  %44 = getelementptr inbounds nuw i8, ptr %5, i64 24
  %45 = load ptr, ptr %44, align 8, !tbaa !32
  %.not.i.i8 = icmp eq ptr %45, null
  br i1 %.not.i.i8, label %Vec_IntErase.exit.i, label %46

46:                                               ; preds = %Vec_IntFree.exit
  call void @free(ptr noundef nonnull %45) #27
  store ptr null, ptr %44, align 8, !tbaa !32
  br label %Vec_IntErase.exit.i

Vec_IntErase.exit.i:                              ; preds = %46, %Vec_IntFree.exit
  store i32 0, ptr %20, align 4, !tbaa !30
  store i32 0, ptr %7, align 8, !tbaa !33
  %47 = getelementptr inbounds nuw i8, ptr %5, i64 32
  %48 = getelementptr inbounds nuw i8, ptr %5, i64 40
  %49 = load ptr, ptr %48, align 8, !tbaa !49
  %.not.i7.i = icmp eq ptr %49, null
  br i1 %.not.i7.i, label %Vec_StrErase.exit.i, label %50

50:                                               ; preds = %Vec_IntErase.exit.i
  call void @free(ptr noundef nonnull %49) #27
  store ptr null, ptr %48, align 8, !tbaa !49
  br label %Vec_StrErase.exit.i

Vec_StrErase.exit.i:                              ; preds = %50, %Vec_IntErase.exit.i
  %51 = getelementptr inbounds nuw i8, ptr %5, i64 36
  store i32 0, ptr %51, align 4, !tbaa !81
  store i32 0, ptr %47, align 8, !tbaa !80
  %52 = getelementptr inbounds nuw i8, ptr %5, i64 56
  %53 = load ptr, ptr %52, align 8, !tbaa !49
  %.not.i8.i = icmp eq ptr %53, null
  br i1 %.not.i8.i, label %Vec_StrErase.exit9.i, label %54

54:                                               ; preds = %Vec_StrErase.exit.i
  call void @free(ptr noundef nonnull %53) #27
  store ptr null, ptr %52, align 8, !tbaa !49
  br label %Vec_StrErase.exit9.i

Vec_StrErase.exit9.i:                             ; preds = %54, %Vec_StrErase.exit.i
  store i32 0, ptr %31, align 4, !tbaa !81
  store i32 0, ptr %6, align 8, !tbaa !80
  %55 = getelementptr inbounds nuw i8, ptr %5, i64 64
  %56 = getelementptr inbounds nuw i8, ptr %5, i64 72
  %57 = load ptr, ptr %56, align 8, !tbaa !32
  %.not.i10.i = icmp eq ptr %57, null
  br i1 %.not.i10.i, label %Vec_IntErase.exit11.i, label %58

58:                                               ; preds = %Vec_StrErase.exit9.i
  call void @free(ptr noundef nonnull %57) #27
  store ptr null, ptr %56, align 8, !tbaa !32
  br label %Vec_IntErase.exit11.i

Vec_IntErase.exit11.i:                            ; preds = %58, %Vec_StrErase.exit9.i
  %59 = getelementptr inbounds nuw i8, ptr %5, i64 68
  store i32 0, ptr %59, align 4, !tbaa !30
  store i32 0, ptr %55, align 8, !tbaa !33
  %60 = getelementptr inbounds nuw i8, ptr %5, i64 88
  %61 = load ptr, ptr %60, align 8, !tbaa !32
  %.not.i12.i = icmp eq ptr %61, null
  br i1 %.not.i12.i, label %Min_ManStop.exit, label %62

62:                                               ; preds = %Vec_IntErase.exit11.i
  call void @free(ptr noundef nonnull %61) #27
  br label %Min_ManStop.exit

Min_ManStop.exit:                                 ; preds = %Vec_IntErase.exit11.i, %62
  call void @free(ptr noundef nonnull %5) #27
  call void @llvm.lifetime.end.p0(i64 8, ptr nonnull %4) #27
  call void @llvm.lifetime.end.p0(i64 4, ptr nonnull %3) #27
  ret void
}